; Function Attrs: mustprogress uwtable
define noundef i32 @_ZN17CaptureFileDialog16selectedFileTypeEv(ptr noundef nonnull align 8 dereferenceable(572) %0) local_unnamed_addr #0 align 2 {
  %2 = alloca %class.QString, align 8
  %3 = alloca i32, align 4
  %4 = getelementptr inbounds i8, ptr %0, i64 432
  call void @_ZNK11QFileDialog18selectedNameFilterEv(ptr dead_on_unwind nonnull writable sret(%class.QString) align 8 %2, ptr noundef nonnull align 8 dereferenceable(40) %0)
  store i32 -1, ptr %3, align 4
  %5 = load ptr, ptr %4, align 8
  %.not.i = icmp eq ptr %5, null
  br i1 %.not.i, label %_ZNK5QHashI7QStringiE5valueERKS0_RKi.exit, label %6

6:                                                ; preds = %1
  %7 = call noundef ptr @_ZNK12QHashPrivate4DataINS_4NodeI7QStringiEEE8findNodeERKS2_(ptr noundef nonnull align 8 dereferenceable(40) %5, ptr noundef nonnull align 8 dereferenceable(24) %2) #18
  %.not7.i = icmp eq ptr %7, null
  %8 = getelementptr inbounds i8, ptr %7, i64 24
  %spec.select.i = select i1 %.not7.i, ptr %3, ptr %8
  %.0.i.pre = load i32, ptr %spec.select.i, align 4
  br label %_ZNK5QHashI7QStringiE5valueERKS0_RKi.exit

_ZNK5QHashI7QStringiE5valueERKS0_RKi.exit:        ; preds = %1, %6
  %.0.i = phi i32 [ -1, %1 ], [ %.0.i.pre, %6 ]
  %9 = load ptr, ptr %2, align 8
  %.not.i.i.i = icmp eq ptr %9, null
  br i1 %.not.i.i.i, label %_ZN7QStringD2Ev.exit, label %_ZN17QArrayDataPointerIDsE5derefEv.exit.i.i

_ZN17QArrayDataPointerIDsE5derefEv.exit.i.i:      ; preds = %_ZNK5QHashI7QStringiE5valueERKS0_RKi.exit
  %10 = atomicrmw sub ptr %9, i32 1 seq_cst, align 4
  %.not.i.i = icmp eq i32 %10, 1
  br i1 %.not.i.i, label %11, label %_ZN7QStringD2Ev.exit

11:                                               ; preds = %_ZN17QArrayDataPointerIDsE5derefEv.exit.i.i
  %12 = load ptr, ptr %2, align 8
  call void @_ZN10QArrayData10deallocateEPS_xx(ptr noundef %12, i64 noundef 2, i64 noundef 8) #18
  br label %_ZN7QStringD2Ev.exit

_ZN7QStringD2Ev.exit:                             ; preds = %_ZNK5QHashI7QStringiE5valueERKS0_RKi.exit, %_ZN17QArrayDataPointerIDsE5derefEv.exit.i.i, %11
  ret i32 %.0.i
}